; Function Attrs: mustprogress uwtable
define hidden void @_ZN3api7context11save_objectEPNS_6objectE(ptr noundef nonnull align 8 captures(none) dereferenceable(3056) %0, ptr noundef %1) local_unnamed_addr #3 align 2 {
  %3 = getelementptr inbounds nuw i8, ptr %0, i64 1448
  %.not.i = icmp eq ptr %1, null
  br i1 %.not.i, label %7, label %4

4:                                                ; preds = %2
  %5 = getelementptr inbounds nuw i8, ptr %1, i64 8
  %6 = atomicrmw add ptr %5, i32 1 seq_cst, align 4
  br label %7

7:                                                ; preds = %4, %2
  %8 = load ptr, ptr %3, align 8, !tbaa !428
  %.not.i.i = icmp eq ptr %8, null
  br i1 %.not.i.i, label %_ZN3refIN3api6objectEEaSEPS1_.exit, label %9

9:                                                ; preds = %7
  %10 = getelementptr inbounds nuw i8, ptr %8, i64 8
  %11 = atomicrmw sub ptr %10, i32 1 seq_cst, align 4
  %12 = icmp eq i32 %11, 1
  br i1 %12, label %13, label %_ZN3refIN3api6objectEEaSEPS1_.exit

13:                                               ; preds = %9
  %14 = getelementptr inbounds nuw i8, ptr %8, i64 16
  %15 = load ptr, ptr %14, align 8, !tbaa !27
  tail call void @_ZN3api7context10del_objectEPNS_6objectE(ptr noundef nonnull align 8 dereferenceable(3056) %15, ptr noundef nonnull align 8 dereferenceable(24) %8)
  br label %_ZN3refIN3api6objectEEaSEPS1_.exit

_ZN3refIN3api6objectEEaSEPS1_.exit:               ; preds = %7, %9, %13
  store ptr %1, ptr %3, align 8, !tbaa !428
  ret void
}